; Function Attrs: mustprogress uwtable
define void @_ZNK17grpc_event_engine12experimental17PosixEndpointImpl16TcpAnnotateErrorEN4absl12lts_202407226StatusE(ptr dead_on_unwind noalias writable writeonly sret(%"class.absl::lts_20240722::Status") align 8 captures(none) initializes((0, 8)) %0, ptr noundef nonnull readonly align 16 captures(none) dereferenceable(904) %1, ptr noundef %2) local_unnamed_addr #5 align 2 personality ptr @__gxx_personality_v0 {
  %4 = getelementptr inbounds nuw i8, ptr %1, i64 872
  %5 = load ptr, ptr %4, align 8, !tbaa !79
  %6 = load ptr, ptr %5, align 8, !tbaa !80
  %7 = load ptr, ptr %6, align 8
  %8 = tail call noundef i32 %7(ptr noundef nonnull align 8 dereferenceable(8) %5)
  %9 = sext i32 %8 to i64
  tail call void @_ZN9grpc_core12StatusSetIntEPN4absl12lts_202407226StatusENS_17StatusIntPropertyEl(ptr noundef %2, i32 noundef 4, i64 noundef %9)
  tail call void @_ZN9grpc_core12StatusSetIntEPN4absl12lts_202407226StatusENS_17StatusIntPropertyEl(ptr noundef %2, i32 noundef 2, i64 noundef 14)
  %10 = load i64, ptr %2, align 8, !tbaa !82
  store i64 %10, ptr %0, align 8, !tbaa !82
  store i64 55, ptr %2, align 8, !tbaa !82
  ret void
}